target datalayout = "e-m:e-p270:32:32-p271:32:32-p272:64:64-i64:64-i128:128-f80:128-n8:16:32:64-S128"
target triple = "x86_64-pc-linux-gnu"

; Function Attrs: nounwind uwtable
define dso_local void @lwTranslatePixelsGroup(i32 noundef %0, ptr noundef %1) #0 {
  %3 = alloca i32, align 4
  %4 = alloca ptr, align 8
  %5 = alloca i32, align 4
  store i32 %0, ptr %3, align 4, !tbaa !5
  store ptr %1, ptr %4, align 8, !tbaa !9
  call void @llvm.lifetime.start.p0(i64 4, ptr %5) #6
  %6 = load i32, ptr %3, align 4, !tbaa !5
  %7 = add nsw i32 10240, %6
  store i32 %7, ptr %5, align 4, !tbaa !5
  %8 = load i32, ptr %5, align 4, !tbaa !5
  %9 = ashr i32 %8, 12
  %10 = or i32 224, %9
  %11 = trunc i32 %10 to i8
  %12 = load ptr, ptr %4, align 8, !tbaa !9
  %13 = getelementptr inbounds i8, ptr %12, i64 0
  store i8 %11, ptr %13, align 1, !tbaa !12
  %14 = load i32, ptr %5, align 4, !tbaa !5
  %15 = ashr i32 %14, 6
  %16 = and i32 %15, 63
  %17 = or i32 128, %16
  %18 = trunc i32 %17 to i8
  %19 = load ptr, ptr %4, align 8, !tbaa !9
  %20 = getelementptr inbounds i8, ptr %19, i64 1
  store i8 %18, ptr %20, align 1, !tbaa !12
  %21 = load i32, ptr %5, align 4, !tbaa !5
  %22 = and i32 %21, 63
  %23 = or i32 128, %22
  %24 = trunc i32 %23 to i8
  %25 = load ptr, ptr %4, align 8, !tbaa !9
  %26 = getelementptr inbounds i8, ptr %25, i64 2
  store i8 %24, ptr %26, align 1, !tbaa !12
  call void @llvm.lifetime.end.p0(i64 4, ptr %5) #6
  ret void
}