; Function Attrs: mustprogress nofree norecurse nosync nounwind willreturn memory(argmem: write) uwtable
define dso_local void @lwTranslatePixelsGroup(i32 noundef %0, ptr noundef writeonly captures(none) initializes((0, 3)) %1) local_unnamed_addr #0 {
  %3 = add nsw i32 %0, 10240
  %4 = lshr i32 %3, 12
  %5 = trunc i32 %4 to i8
  %6 = or i8 %5, -32
  store i8 %6, ptr %1, align 1, !tbaa !5
  %7 = lshr i32 %3, 6
  %8 = trunc i32 %7 to i8
  %9 = and i8 %8, 63
  %10 = or disjoint i8 %9, -128
  %11 = getelementptr inbounds nuw i8, ptr %1, i64 1
  store i8 %10, ptr %11, align 1, !tbaa !5
  %12 = trunc i32 %0 to i8
  %13 = and i8 %12, 63
  %14 = or disjoint i8 %13, -128
  %15 = getelementptr inbounds nuw i8, ptr %1, i64 2
  store i8 %14, ptr %15, align 1, !tbaa !5
  ret void
}